(dp0
S'tables'
p1
(lp2
S'auth_user'
p3
aS'queue'
p4
asS'name'
p5
S'queue'
p6
sS'page_queue_manage'
p7
S'## Manage queue\r\n\r\n{{=form}}'
p8
sS'table_queue'
p9
(lp10
S'name'
p11
asS'page_index'
p12
S'# Welcome to my new app'
p13
sS'page_error'
p14
S'# Error: the document does not exist'
p15
sS'params'
p16
(lp17
(S'title'
p18
S'\xd0\x9e\xd1\x87\xd0\xb5\xd1\x80\xd0\xb5\xd0\xb4\xd1\x8c'
p19
tp20
a(S'subtitle'
p21
S'\xd0\xad\xd0\xbb\xd0\xb5\xd0\xba\xd1\x82\xd1\x80\xd0\xbe\xd0\xbd\xd0\xbd\xd0\xb0\xd1\x8f \xd0\xbe\xd1\x87\xd0\xb5\xd1\x80\xd0\xb5\xd0\xb4\xd1\x8c'
p22
tp23
a(S'author'
p24
S''
p25
tp26
a(S'author_email'
p27
g25
tp28
a(S'keywords'
p29
g25
tp30
a(S'description'
p31
g25
tp32
a(S'layout_theme'
p33
S'Default'
p34
tp35
a(S'database_uri'
p36
S'sqlite://queue.sqlite'
p37
tp38
a(S'security_key'
p39
S'aee74184-cd9e-485f-9342-a1fe9e738195'
p40
tp41
a(S'email_server'
p42
S'localhost'
p43
tp44
a(S'email_sender'
p45
g25
tp46
a(S'email_login'
p47
g25
tp48
a(S'login_method'
p49
S'janrain'
p50
tp51
a(S'login_config'
p52
g25
tp53
a(S'plugins'
p54
(lp55
tp56
asS'table_auth_user'
p57
(lp58
S'username'
p59
aS'first_name'
p60
aS'last_name'
p61
aS'email'
p62
aS'password'
p63
asS'pages'
p64
(lp65
S'index'
p66
aS'error'
p67
aS'queue_manage'
p68
as.